target datalayout = "e-m:e-p270:32:32-p271:32:32-p272:64:64-i64:64-i128:128-f80:128-n8:16:32:64-S128"
target triple = "x86_64-pc-linux-gnu"

%struct.xSAT_Solver_t_ = type { ptr, ptr, ptr, ptr, ptr, i32, i32, ptr, ptr, ptr, ptr, ptr, ptr, ptr, ptr, ptr, i32, i32, i64, ptr, ptr, float, i32, i64, i32, ptr, ptr, ptr, ptr, ptr, i32, ptr, %struct.xSAT_SolverOptions_t_, %struct.xSAT_Stats_t_ }
%struct.xSAT_SolverOptions_t_ = type { i8, i64, i64, i64, double, double, i32, i32, i32, i32, i32, i32, i32 }
%struct.xSAT_Stats_t_ = type { i32, i32, i64, i64, i64, i64, i64, i64 }
%struct.Vec_Int_t_ = type { i32, i32, ptr }
%struct.Vec_Str_t_ = type { i32, i32, ptr }

; Function Attrs: inlinehint nounwind uwtable
define internal void @Vec_IntShrink(ptr noundef %0, i32 noundef %1) #4 {
  %3 = alloca ptr, align 8
  %4 = alloca i32, align 4
  store ptr %0, ptr %3, align 8, !tbaa !57
  store i32 %1, ptr %4, align 4, !tbaa !14
  %5 = load i32, ptr %4, align 4, !tbaa !14
  %6 = load ptr, ptr %3, align 8, !tbaa !57
  %7 = getelementptr inbounds nuw %struct.Vec_Int_t_, ptr %6, i32 0, i32 1
  store i32 %5, ptr %7, align 4, !tbaa !58
  ret void
}

; Function Attrs: inlinehint nounwind uwtable
define internal void @Vec_IntWriteEntry(ptr noundef %0, i32 noundef %1, i32 noundef %2) #4 {
  %4 = alloca ptr, align 8
  %5 = alloca i32, align 4
  %6 = alloca i32, align 4
  store ptr %0, ptr %4, align 8, !tbaa !57
  store i32 %1, ptr %5, align 4, !tbaa !14
  store i32 %2, ptr %6, align 4, !tbaa !14
  %7 = load i32, ptr %6, align 4, !tbaa !14
  %8 = load ptr, ptr %4, align 8, !tbaa !57
  %9 = getelementptr inbounds nuw %struct.Vec_Int_t_, ptr %8, i32 0, i32 2
  %10 = load ptr, ptr %9, align 8, !tbaa !62
  %11 = load i32, ptr %5, align 4, !tbaa !14
  %12 = sext i32 %11 to i64
  %13 = getelementptr inbounds i32, ptr %10, i64 %12
  store i32 %7, ptr %13, align 4, !tbaa !14
  ret void
}

; Function Attrs: inlinehint nounwind uwtable
define internal i32 @xSAT_LitSign(i32 noundef %0) #4 {
  %2 = alloca i32, align 4
  store i32 %0, ptr %2, align 4, !tbaa !14
  %3 = load i32, ptr %2, align 4, !tbaa !14
  %4 = and i32 %3, 1
  ret i32 %4
}

; Function Attrs: inlinehint nounwind uwtable
define internal signext i8 @Vec_StrEntry(ptr noundef %0, i32 noundef %1) #4 {
  %3 = alloca ptr, align 8
  %4 = alloca i32, align 4
  store ptr %0, ptr %3, align 8, !tbaa !74
  store i32 %1, ptr %4, align 4, !tbaa !14
  %5 = load ptr, ptr %3, align 8, !tbaa !74
  %6 = getelementptr inbounds nuw %struct.Vec_Str_t_, ptr %5, i32 0, i32 2
  %7 = load ptr, ptr %6, align 8, !tbaa !79
  %8 = load i32, ptr %4, align 4, !tbaa !14
  %9 = sext i32 %8 to i64
  %10 = getelementptr inbounds i8, ptr %7, i64 %9
  %11 = load i8, ptr %10, align 1, !tbaa !9
  ret i8 %11
}

; Function Attrs: inlinehint nounwind uwtable
define internal i32 @xSAT_NegLit(i32 noundef %0) #4 {
  %2 = alloca i32, align 4
  store i32 %0, ptr %2, align 4, !tbaa !14
  %3 = load i32, ptr %2, align 4, !tbaa !14
  %4 = xor i32 %3, 1
  ret i32 %4
}

; Function Attrs: inlinehint nounwind uwtable
define internal i32 @Vec_IntEntry(ptr noundef %0, i32 noundef %1) #4 {
  %3 = alloca ptr, align 8
  %4 = alloca i32, align 4
  store ptr %0, ptr %3, align 8, !tbaa !57
  store i32 %1, ptr %4, align 4, !tbaa !14
  %5 = load ptr, ptr %3, align 8, !tbaa !57
  %6 = getelementptr inbounds nuw %struct.Vec_Int_t_, ptr %5, i32 0, i32 2
  %7 = load ptr, ptr %6, align 8, !tbaa !62
  %8 = load i32, ptr %4, align 4, !tbaa !14
  %9 = sext i32 %8 to i64
  %10 = getelementptr inbounds i32, ptr %7, i64 %9
  %11 = load i32, ptr %10, align 4, !tbaa !14
  ret i32 %11
}

; Function Attrs: inlinehint nounwind uwtable
define internal i32 @Vec_IntSize(ptr noundef %0) #4 {
  %2 = alloca ptr, align 8
  store ptr %0, ptr %2, align 8, !tbaa !57
  %3 = load ptr, ptr %2, align 8, !tbaa !57
  %4 = getelementptr inbounds nuw %struct.Vec_Int_t_, ptr %3, i32 0, i32 1
  %5 = load i32, ptr %4, align 4, !tbaa !58
  ret i32 %5
}

; Function Attrs: inlinehint nounwind uwtable
define internal i32 @xSAT_Lit2Var(i32 noundef %0) #4 {
  %2 = alloca i32, align 4
  store i32 %0, ptr %2, align 4, !tbaa !14
  %3 = load i32, ptr %2, align 4, !tbaa !14
  %4 = ashr i32 %3, 1
  ret i32 %4
}

; Function Attrs: inlinehint nounwind uwtable
define internal i32 @Vec_IntEntryLast(ptr noundef %0) #4 {
  %2 = alloca ptr, align 8
  store ptr %0, ptr %2, align 8, !tbaa !57
  %3 = load ptr, ptr %2, align 8, !tbaa !57
  %4 = getelementptr inbounds nuw %struct.Vec_Int_t_, ptr %3, i32 0, i32 2
  %5 = load ptr, ptr %4, align 8, !tbaa !62
  %6 = load ptr, ptr %2, align 8, !tbaa !57
  %7 = getelementptr inbounds nuw %struct.Vec_Int_t_, ptr %6, i32 0, i32 1
  %8 = load i32, ptr %7, align 4, !tbaa !58
  %9 = sub nsw i32 %8, 1
  %10 = sext i32 %9 to i64
  %11 = getelementptr inbounds i32, ptr %5, i64 %10
  %12 = load i32, ptr %11, align 4, !tbaa !14
  ret i32 %12
}

; Function Attrs: inlinehint nounwind uwtable
define internal void @Vec_IntSort(ptr noundef %0, i32 noundef %1) #4 {
  %3 = alloca ptr, align 8
  %4 = alloca i32, align 4
  store ptr %0, ptr %3, align 8, !tbaa !57
  store i32 %1, ptr %4, align 4, !tbaa !14
  %5 = load i32, ptr %4, align 4, !tbaa !14
  %6 = icmp ne i32 %5, 0
  br i1 %6, label %7, label %15

7:                                                ; preds = %2
  %8 = load ptr, ptr %3, align 8, !tbaa !57
  %9 = getelementptr inbounds nuw %struct.Vec_Int_t_, ptr %8, i32 0, i32 2
  %10 = load ptr, ptr %9, align 8, !tbaa !62
  %11 = load ptr, ptr %3, align 8, !tbaa !57
  %12 = getelementptr inbounds nuw %struct.Vec_Int_t_, ptr %11, i32 0, i32 1
  %13 = load i32, ptr %12, align 4, !tbaa !58
  %14 = sext i32 %13 to i64
  call void @qsort(ptr noundef %10, i64 noundef %14, i64 noundef 4, ptr noundef @Vec_IntSortCompare2)
  br label %23

15:                                               ; preds = %2
  %16 = load ptr, ptr %3, align 8, !tbaa !57
  %17 = getelementptr inbounds nuw %struct.Vec_Int_t_, ptr %16, i32 0, i32 2
  %18 = load ptr, ptr %17, align 8, !tbaa !62
  %19 = load ptr, ptr %3, align 8, !tbaa !57
  %20 = getelementptr inbounds nuw %struct.Vec_Int_t_, ptr %19, i32 0, i32 1
  %21 = load i32, ptr %20, align 4, !tbaa !58
  %22 = sext i32 %21 to i64
  call void @qsort(ptr noundef %18, i64 noundef %22, i64 noundef 4, ptr noundef @Vec_IntSortCompare1)
  br label %23

23:                                               ; preds = %15, %7
  ret void
}

; Function Attrs: nounwind uwtable
define i32 @xSAT_SolverAddClause(ptr noundef %0, ptr noundef %1) #0 {
  %3 = alloca i32, align 4
  %4 = alloca ptr, align 8
  %5 = alloca ptr, align 8
  %6 = alloca i32, align 4
  %7 = alloca i32, align 4
  %8 = alloca i32, align 4
  %9 = alloca i32, align 4
  %10 = alloca i32, align 4
  %11 = alloca i32, align 4
  store ptr %0, ptr %4, align 8, !tbaa !3
  store ptr %1, ptr %5, align 8, !tbaa !57
  call void @llvm.lifetime.start.p0(i64 4, ptr %6) #10
  call void @llvm.lifetime.start.p0(i64 4, ptr %7) #10
  call void @llvm.lifetime.start.p0(i64 4, ptr %8) #10
  call void @llvm.lifetime.start.p0(i64 4, ptr %9) #10
  call void @llvm.lifetime.start.p0(i64 4, ptr %10) #10
  %12 = load ptr, ptr %5, align 8, !tbaa !57
  call void @Vec_IntSort(ptr noundef %12, i32 noundef 0)
  %13 = load ptr, ptr %5, align 8, !tbaa !57
  %14 = call i32 @Vec_IntEntryLast(ptr noundef %13)
  %15 = call i32 @xSAT_Lit2Var(i32 noundef %14)
  store i32 %15, ptr %10, align 4, !tbaa !14
  br label %16

16:                                               ; preds = %23, %2
  %17 = load i32, ptr %10, align 4, !tbaa !14
  %18 = load ptr, ptr %4, align 8, !tbaa !3
  %19 = getelementptr inbounds nuw %struct.xSAT_Solver_t_, ptr %18, i32 0, i32 7
  %20 = load ptr, ptr %19, align 8, !tbaa !33
  %21 = call i32 @Vec_IntSize(ptr noundef %20)
  %22 = icmp sge i32 %17, %21
  br i1 %22, label %23, label %25

23:                                               ; preds = %16
  %24 = load ptr, ptr %4, align 8, !tbaa !3
  call void @xSAT_SolverAddVariable(ptr noundef %24, i32 noundef 1)
  br label %16, !llvm.loop !110

25:                                               ; preds = %16
  store i32 0, ptr %7, align 4, !tbaa !14
  store i32 -2, ptr %9, align 4, !tbaa !14
  store i32 0, ptr %6, align 4, !tbaa !14
  br label %26

26:                                               ; preds = %75, %25
  %27 = load i32, ptr %6, align 4, !tbaa !14
  %28 = load ptr, ptr %5, align 8, !tbaa !57
  %29 = call i32 @Vec_IntSize(ptr noundef %28)
  %30 = icmp slt i32 %27, %29
  br i1 %30, label %31, label %35

31:                                               ; preds = %26
  %32 = load ptr, ptr %5, align 8, !tbaa !57
  %33 = load i32, ptr %6, align 4, !tbaa !14
  %34 = call i32 @Vec_IntEntry(ptr noundef %32, i32 noundef %33)
  store i32 %34, ptr %8, align 4, !tbaa !14
  br label %35

35:                                               ; preds = %31, %26
  %36 = phi i1 [ false, %26 ], [ true, %31 ]
  br i1 %36, label %37, label %78

37:                                               ; preds = %35
  %38 = load i32, ptr %8, align 4, !tbaa !14
  %39 = load i32, ptr %9, align 4, !tbaa !14
  %40 = call i32 @xSAT_NegLit(i32 noundef %39)
  %41 = icmp eq i32 %38, %40
  br i1 %41, label %53, label %42

42:                                               ; preds = %37
  %43 = load ptr, ptr %4, align 8, !tbaa !3
  %44 = getelementptr inbounds nuw %struct.xSAT_Solver_t_, ptr %43, i32 0, i32 11
  %45 = load ptr, ptr %44, align 8, !tbaa !37
  %46 = load i32, ptr %8, align 4, !tbaa !14
  %47 = call i32 @xSAT_Lit2Var(i32 noundef %46)
  %48 = call signext i8 @Vec_StrEntry(ptr noundef %45, i32 noundef %47)
  %49 = sext i8 %48 to i32
  %50 = load i32, ptr %8, align 4, !tbaa !14
  %51 = call i32 @xSAT_LitSign(i32 noundef %50)
  %52 = icmp eq i32 %49, %51
  br i1 %52, label %53, label %54

53:                                               ; preds = %42, %37
  store i32 1, ptr %3, align 4
  store i32 1, ptr %11, align 4
  br label %102

54:                                               ; preds = %42
  %55 = load i32, ptr %8, align 4, !tbaa !14
  %56 = load i32, ptr %9, align 4, !tbaa !14
  %57 = icmp ne i32 %55, %56
  br i1 %57, label %58, label %73

58:                                               ; preds = %54
  %59 = load ptr, ptr %4, align 8, !tbaa !3
  %60 = getelementptr inbounds nuw %struct.xSAT_Solver_t_, ptr %59, i32 0, i32 11
  %61 = load ptr, ptr %60, align 8, !tbaa !37
  %62 = load i32, ptr %8, align 4, !tbaa !14
  %63 = call i32 @xSAT_Lit2Var(i32 noundef %62)
  %64 = call signext i8 @Vec_StrEntry(ptr noundef %61, i32 noundef %63)
  %65 = sext i8 %64 to i32
  %66 = icmp eq i32 %65, 3
  br i1 %66, label %67, label %73

67:                                               ; preds = %58
  %68 = load i32, ptr %8, align 4, !tbaa !14
  store i32 %68, ptr %9, align 4, !tbaa !14
  %69 = load ptr, ptr %5, align 8, !tbaa !57
  %70 = load i32, ptr %7, align 4, !tbaa !14
  %71 = add nsw i32 %70, 1
  store i32 %71, ptr %7, align 4, !tbaa !14
  %72 = load i32, ptr %8, align 4, !tbaa !14
  call void @Vec_IntWriteEntry(ptr noundef %69, i32 noundef %70, i32 noundef %72)
  br label %73

73:                                               ; preds = %67, %58, %54
  br label %74

74:                                               ; preds = %73
  br label %75

75:                                               ; preds = %74
  %76 = load i32, ptr %6, align 4, !tbaa !14
  %77 = add nsw i32 %76, 1
  store i32 %77, ptr %6, align 4, !tbaa !14
  br label %26, !llvm.loop !111

78:                                               ; preds = %35
  %79 = load ptr, ptr %5, align 8, !tbaa !57
  %80 = load i32, ptr %7, align 4, !tbaa !14
  call void @Vec_IntShrink(ptr noundef %79, i32 noundef %80)
  %81 = load ptr, ptr %5, align 8, !tbaa !57
  %82 = call i32 @Vec_IntSize(ptr noundef %81)
  %83 = icmp eq i32 %82, 0
  br i1 %83, label %84, label %85

84:                                               ; preds = %78
  store i32 0, ptr %3, align 4
  store i32 1, ptr %11, align 4
  br label %102

85:                                               ; preds = %78
  %86 = load ptr, ptr %5, align 8, !tbaa !57
  %87 = call i32 @Vec_IntSize(ptr noundef %86)
  %88 = icmp eq i32 %87, 1
  br i1 %88, label %89, label %98

89:                                               ; preds = %85
  %90 = load ptr, ptr %4, align 8, !tbaa !3
  %91 = load ptr, ptr %5, align 8, !tbaa !57
  %92 = call i32 @Vec_IntEntry(ptr noundef %91, i32 noundef 0)
  %93 = call i32 @xSAT_SolverEnqueue(ptr noundef %90, i32 noundef %92, i32 noundef -1)
  %94 = load ptr, ptr %4, align 8, !tbaa !3
  %95 = call i32 @xSAT_SolverPropagate(ptr noundef %94)
  %96 = icmp eq i32 %95, -1
  %97 = zext i1 %96 to i32
  store i32 %97, ptr %3, align 4
  store i32 1, ptr %11, align 4
  br label %102

98:                                               ; preds = %85
  %99 = load ptr, ptr %4, align 8, !tbaa !3
  %100 = load ptr, ptr %5, align 8, !tbaa !57
  %101 = call i32 @xSAT_SolverClaNew(ptr noundef %99, ptr noundef %100, i32 noundef 0)
  store i32 1, ptr %3, align 4
  store i32 1, ptr %11, align 4
  br label %102

102:                                              ; preds = %98, %89, %84, %53
  call void @llvm.lifetime.end.p0(i64 4, ptr %10) #10
  call void @llvm.lifetime.end.p0(i64 4, ptr %9) #10
  call void @llvm.lifetime.end.p0(i64 4, ptr %8) #10
  call void @llvm.lifetime.end.p0(i64 4, ptr %7) #10
  call void @llvm.lifetime.end.p0(i64 4, ptr %6) #10
  %103 = load i32, ptr %3, align 4
  ret i32 %103
}