; Function Attrs: nounwind uwtable
define range(i32 0, 2) i32 @xSAT_SolverAddClause(ptr noundef %0, ptr noundef %1) local_unnamed_addr #3 {
  %3 = getelementptr i8, ptr %1, i64 4
  %.val46 = load i32, ptr %3, align 4, !tbaa !81
  %4 = getelementptr i8, ptr %1, i64 8
  %.val47 = load ptr, ptr %4, align 8, !tbaa !70
  %5 = sext i32 %.val46 to i64
  tail call void @qsort(ptr noundef %.val47, i64 noundef %5, i64 noundef 4, ptr noundef nonnull @Vec_IntSortCompare1) #18
  %.val48 = load i32, ptr %3, align 4, !tbaa !81
  %.val49 = load ptr, ptr %4, align 8, !tbaa !70
  %6 = sext i32 %.val48 to i64
  %7 = getelementptr i32, ptr %.val49, i64 %6
  %8 = getelementptr i8, ptr %7, i64 -4
  %9 = load i32, ptr %8, align 4, !tbaa !11
  %10 = ashr i32 %9, 1
  %11 = getelementptr inbounds nuw i8, ptr %0, i64 48
  %12 = load ptr, ptr %11, align 8, !tbaa !40
  %13 = getelementptr i8, ptr %12, i64 4
  %.val4051 = load i32, ptr %13, align 4, !tbaa !81
  %.not52 = icmp slt i32 %10, %.val4051
  br i1 %.not52, label %.preheader, label %.lr.ph

.preheader.loopexit:                              ; preds = %.lr.ph
  %.val3953.pre = load i32, ptr %3, align 4, !tbaa !81
  br label %.preheader

.preheader:                                       ; preds = %.preheader.loopexit, %2
  %.val3953 = phi i32 [ %.val3953.pre, %.preheader.loopexit ], [ %.val48, %2 ]
  %14 = icmp sgt i32 %.val3953, 0
  br i1 %14, label %.lr.ph57, label %.critedge.thread

.critedge.thread:                                 ; preds = %.preheader
  store i32 0, ptr %3, align 4, !tbaa !81
  br label %.loopexit

.lr.ph57:                                         ; preds = %.preheader
  %.val42 = load ptr, ptr %4, align 8, !tbaa !70
  %15 = getelementptr inbounds nuw i8, ptr %0, i64 80
  br label %18

.lr.ph:                                           ; preds = %2, %.lr.ph
  tail call void @xSAT_SolverAddVariable(ptr noundef nonnull %0, i32 poison)
  %16 = load ptr, ptr %11, align 8, !tbaa !40
  %17 = getelementptr i8, ptr %16, i64 4
  %.val40 = load i32, ptr %17, align 4, !tbaa !81
  %.not = icmp slt i32 %10, %.val40
  br i1 %.not, label %.preheader.loopexit, label %.lr.ph, !llvm.loop !99

18:                                               ; preds = %.lr.ph57, %39
  %.val3960 = phi i32 [ %.val3953, %.lr.ph57 ], [ %.val39, %39 ]
  %indvars.iv = phi i64 [ 0, %.lr.ph57 ], [ %indvars.iv.next, %39 ]
  %.03256 = phi i32 [ -2, %.lr.ph57 ], [ %.1, %39 ]
  %.03454 = phi i32 [ 0, %.lr.ph57 ], [ %.135, %39 ]
  %19 = getelementptr inbounds nuw i32, ptr %.val42, i64 %indvars.iv
  %20 = load i32, ptr %19, align 4, !tbaa !11
  %21 = xor i32 %20, %.03256
  %22 = icmp eq i32 %21, 1
  br i1 %22, label %.loopexit, label %23

23:                                               ; preds = %18
  %24 = load ptr, ptr %15, align 8, !tbaa !48
  %25 = ashr i32 %20, 1
  %26 = getelementptr i8, ptr %24, i64 8
  %.val43 = load ptr, ptr %26, align 8, !tbaa !77
  %27 = sext i32 %25 to i64
  %28 = getelementptr inbounds i8, ptr %.val43, i64 %27
  %29 = load i8, ptr %28, align 1, !tbaa !4
  %30 = sext i8 %29 to i32
  %31 = and i32 %20, 1
  %32 = icmp eq i32 %31, %30
  br i1 %32, label %.loopexit, label %33

33:                                               ; preds = %23
  %.not37 = icmp ne i32 %20, %.03256
  %34 = icmp eq i8 %29, 3
  %or.cond = and i1 %.not37, %34
  br i1 %or.cond, label %35, label %39

35:                                               ; preds = %33
  %36 = add nsw i32 %.03454, 1
  %37 = sext i32 %.03454 to i64
  %38 = getelementptr inbounds i32, ptr %.val42, i64 %37
  store i32 %20, ptr %38, align 4, !tbaa !11
  %.val39.pre = load i32, ptr %3, align 4, !tbaa !81
  br label %39

39:                                               ; preds = %35, %33
  %.val39 = phi i32 [ %.val39.pre, %35 ], [ %.val3960, %33 ]
  %.135 = phi i32 [ %36, %35 ], [ %.03454, %33 ]
  %.1 = phi i32 [ %20, %35 ], [ %.03256, %33 ]
  %indvars.iv.next = add nuw nsw i64 %indvars.iv, 1
  %40 = sext i32 %.val39 to i64
  %41 = icmp slt i64 %indvars.iv.next, %40
  br i1 %41, label %18, label %.critedge, !llvm.loop !100

.critedge:                                        ; preds = %39
  store i32 %.135, ptr %3, align 4, !tbaa !81
  switch i32 %.135, label %48 [
    i32 0, label %.loopexit
    i32 1, label %42
  ]

42:                                               ; preds = %.critedge
  %.val41 = load ptr, ptr %4, align 8, !tbaa !70
  %43 = load i32, ptr %.val41, align 4, !tbaa !11
  %44 = tail call i32 @xSAT_SolverEnqueue(ptr noundef nonnull %0, i32 noundef %43, i32 noundef -1) #18
  %45 = tail call i32 @xSAT_SolverPropagate(ptr noundef nonnull %0) #18
  %46 = icmp eq i32 %45, -1
  %47 = zext i1 %46 to i32
  br label %.loopexit

48:                                               ; preds = %.critedge
  %49 = tail call i32 @xSAT_SolverClaNew(ptr noundef nonnull %0, ptr noundef nonnull %1, i32 noundef 0) #18
  br label %.loopexit

.loopexit:                                        ; preds = %18, %23, %.critedge.thread, %.critedge, %48, %42
  %.0 = phi i32 [ %47, %42 ], [ 1, %48 ], [ %.135, %.critedge ], [ 0, %.critedge.thread ], [ 1, %23 ], [ 1, %18 ]
  ret i32 %.0
}